target datalayout = "e-m:e-p270:32:32-p271:32:32-p272:64:64-i64:64-i128:128-f80:128-n8:16:32:64-S128"
target triple = "x86_64-pc-linux-gnu"

%struct.x509_st = type { ptr, ptr, ptr, i32, i32, ptr, %struct.crypto_ex_data_st, i64, i64, i64, i64, i64, i64, ptr, ptr, ptr, ptr, ptr, ptr, [20 x i8], ptr }
%struct.crypto_ex_data_st = type { ptr }
%struct.x509_purpose_st = type { i32, i32, i32, ptr, ptr, ptr, ptr }

@xptable = internal global ptr null, align 8

; Function Attrs: nounwind uwtable
define hidden ptr @X509_PURPOSE_get0(i32 noundef %0) #0 {
  %2 = alloca ptr, align 8
  %3 = alloca i32, align 4
  store i32 %0, ptr %3, align 4, !tbaa !11
  %4 = load i32, ptr %3, align 4, !tbaa !11
  %5 = icmp slt i32 %4, 0
  br i1 %5, label %6, label %7

6:                                                ; preds = %1
  store ptr null, ptr %2, align 8
  br label %20

7:                                                ; preds = %1
  %8 = load i32, ptr %3, align 4, !tbaa !11
  %9 = icmp slt i32 %8, 9
  br i1 %9, label %10, label %14

10:                                               ; preds = %7
  %11 = load i32, ptr %3, align 4, !tbaa !11
  %12 = sext i32 %11 to i64
  %13 = getelementptr inbounds %struct.x509_purpose_st, ptr @xstandard, i64 %12
  store ptr %13, ptr %2, align 8
  br label %20

14:                                               ; preds = %7
  %15 = load ptr, ptr @xptable, align 8, !tbaa !74
  %16 = load i32, ptr %3, align 4, !tbaa !11
  %17 = sext i32 %16 to i64
  %18 = sub i64 %17, 9
  %19 = call ptr @sk_value(ptr noundef %15, i64 noundef %18)
  store ptr %19, ptr %2, align 8
  br label %20

20:                                               ; preds = %14, %10, %6
  %21 = load ptr, ptr %2, align 8
  ret ptr %21
}

; Function Attrs: nounwind uwtable
define hidden i32 @X509_PURPOSE_get_by_id(i32 noundef %0) #0 {
  %2 = alloca i32, align 4
  %3 = alloca i32, align 4
  %4 = alloca %struct.x509_purpose_st, align 8
  %5 = alloca i64, align 8
  %6 = alloca i32, align 4
  store i32 %0, ptr %3, align 4, !tbaa !11
  call void @llvm.lifetime.start.p0(i64 48, ptr %4) #7
  call void @llvm.lifetime.start.p0(i64 8, ptr %5) #7
  %7 = load i32, ptr %3, align 4, !tbaa !11
  %8 = icmp sge i32 %7, 1
  br i1 %8, label %9, label %15

9:                                                ; preds = %1
  %10 = load i32, ptr %3, align 4, !tbaa !11
  %11 = icmp sle i32 %10, 9
  br i1 %11, label %12, label %15

12:                                               ; preds = %9
  %13 = load i32, ptr %3, align 4, !tbaa !11
  %14 = sub nsw i32 %13, 1
  store i32 %14, ptr %2, align 4
  store i32 1, ptr %6, align 4
  br label %30

15:                                               ; preds = %9, %1
  %16 = load i32, ptr %3, align 4, !tbaa !11
  %17 = getelementptr inbounds nuw %struct.x509_purpose_st, ptr %4, i32 0, i32 0
  store i32 %16, ptr %17, align 8, !tbaa !73
  %18 = load ptr, ptr @xptable, align 8, !tbaa !74
  %19 = icmp ne ptr %18, null
  br i1 %19, label %21, label %20

20:                                               ; preds = %15
  store i32 -1, ptr %2, align 4
  store i32 1, ptr %6, align 4
  br label %30

21:                                               ; preds = %15
  %22 = load ptr, ptr @xptable, align 8, !tbaa !74
  %23 = call i32 @sk_find(ptr noundef %22, ptr noundef %5, ptr noundef %4)
  %24 = icmp ne i32 %23, 0
  br i1 %24, label %26, label %25

25:                                               ; preds = %21
  store i32 -1, ptr %2, align 4
  store i32 1, ptr %6, align 4
  br label %30

26:                                               ; preds = %21
  %27 = load i64, ptr %5, align 8, !tbaa !62
  %28 = add i64 %27, 9
  %29 = trunc i64 %28 to i32
  store i32 %29, ptr %2, align 4
  store i32 1, ptr %6, align 4
  br label %30

30:                                               ; preds = %26, %25, %20, %12
  call void @llvm.lifetime.end.p0(i64 8, ptr %5) #7
  call void @llvm.lifetime.end.p0(i64 48, ptr %4) #7
  %31 = load i32, ptr %2, align 4
  ret i32 %31
}

; Function Attrs: nounwind uwtable
define hidden i32 @X509_check_purpose(ptr noundef %0, i32 noundef %1, i32 noundef %2) #0 {
  %4 = alloca i32, align 4
  %5 = alloca ptr, align 8
  %6 = alloca i32, align 4
  %7 = alloca i32, align 4
  %8 = alloca i32, align 4
  %9 = alloca ptr, align 8
  %10 = alloca i32, align 4
  store ptr %0, ptr %5, align 8, !tbaa !6
  store i32 %1, ptr %6, align 4, !tbaa !11
  store i32 %2, ptr %7, align 4, !tbaa !11
  call void @llvm.lifetime.start.p0(i64 4, ptr %8) #7
  call void @llvm.lifetime.start.p0(i64 8, ptr %9) #7
  %11 = load ptr, ptr %5, align 8, !tbaa !6
  %12 = getelementptr inbounds nuw %struct.x509_st, ptr %11, i32 0, i32 9
  %13 = load i64, ptr %12, align 8, !tbaa !13
  %14 = and i64 %13, 256
  %15 = icmp ne i64 %14, 0
  br i1 %15, label %18, label %16

16:                                               ; preds = %3
  %17 = load ptr, ptr %5, align 8, !tbaa !6
  call void @x509v3_cache_extensions(ptr noundef %17)
  br label %18

18:                                               ; preds = %16, %3
  %19 = load i32, ptr %6, align 4, !tbaa !11
  %20 = icmp eq i32 %19, -1
  br i1 %20, label %21, label %22

21:                                               ; preds = %18
  store i32 1, ptr %4, align 4
  store i32 1, ptr %10, align 4
  br label %38

22:                                               ; preds = %18
  %23 = load i32, ptr %6, align 4, !tbaa !11
  %24 = call i32 @X509_PURPOSE_get_by_id(i32 noundef %23)
  store i32 %24, ptr %8, align 4, !tbaa !11
  %25 = load i32, ptr %8, align 4, !tbaa !11
  %26 = icmp eq i32 %25, -1
  br i1 %26, label %27, label %28

27:                                               ; preds = %22
  store i32 -1, ptr %4, align 4
  store i32 1, ptr %10, align 4
  br label %38

28:                                               ; preds = %22
  %29 = load i32, ptr %8, align 4, !tbaa !11
  %30 = call ptr @X509_PURPOSE_get0(i32 noundef %29)
  store ptr %30, ptr %9, align 8, !tbaa !28
  %31 = load ptr, ptr %9, align 8, !tbaa !28
  %32 = getelementptr inbounds nuw %struct.x509_purpose_st, ptr %31, i32 0, i32 3
  %33 = load ptr, ptr %32, align 8, !tbaa !30
  %34 = load ptr, ptr %9, align 8, !tbaa !28
  %35 = load ptr, ptr %5, align 8, !tbaa !6
  %36 = load i32, ptr %7, align 4, !tbaa !11
  %37 = call i32 %33(ptr noundef %34, ptr noundef %35, i32 noundef %36)
  store i32 %37, ptr %4, align 4
  store i32 1, ptr %10, align 4
  br label %38

38:                                               ; preds = %28, %27, %21
  call void @llvm.lifetime.end.p0(i64 8, ptr %9) #7
  call void @llvm.lifetime.end.p0(i64 4, ptr %8) #7
  %39 = load i32, ptr %4, align 4
  ret i32 %39
}