; Function Attrs: nounwind uwtable
define hidden i32 @X509_check_purpose(ptr noundef %0, i32 noundef %1, i32 noundef %2) local_unnamed_addr #0 {
  %4 = alloca %struct.x509_purpose_st, align 8
  %5 = alloca i64, align 8
  %6 = getelementptr inbounds nuw i8, ptr %0, i64 64
  %7 = load i64, ptr %6, align 8, !tbaa !6
  %8 = and i64 %7, 256
  %.not = icmp eq i64 %8, 0
  br i1 %.not, label %9, label %10

9:                                                ; preds = %3
  tail call fastcc void @x509v3_cache_extensions(ptr noundef nonnull %0)
  br label %10

10:                                               ; preds = %9, %3
  %11 = icmp eq i32 %1, -1
  br i1 %11, label %37, label %12

12:                                               ; preds = %10
  call void @llvm.lifetime.start.p0(i64 48, ptr nonnull %4) #10
  call void @llvm.lifetime.start.p0(i64 8, ptr nonnull %5) #10
  %13 = add i32 %1, -1
  %or.cond.i = icmp ult i32 %13, 9
  br i1 %or.cond.i, label %.thread19, label %14

.thread19:                                        ; preds = %12
  call void @llvm.lifetime.end.p0(i64 8, ptr nonnull %5) #10
  call void @llvm.lifetime.end.p0(i64 48, ptr nonnull %4) #10
  br label %26

14:                                               ; preds = %12
  store i32 %1, ptr %4, align 8, !tbaa !25
  %15 = load ptr, ptr @xptable, align 8, !tbaa !27
  %.not.i = icmp eq ptr %15, null
  br i1 %.not.i, label %X509_PURPOSE_get_by_id.exit.thread, label %16

16:                                               ; preds = %14
  %17 = call i32 @sk_find(ptr noundef nonnull %15, ptr noundef nonnull %5, ptr noundef nonnull %4) #10
  %.not8.i = icmp eq i32 %17, 0
  br i1 %.not8.i, label %X509_PURPOSE_get_by_id.exit.thread, label %X509_PURPOSE_get_by_id.exit

X509_PURPOSE_get_by_id.exit.thread:               ; preds = %14, %16
  call void @llvm.lifetime.end.p0(i64 8, ptr nonnull %5) #10
  call void @llvm.lifetime.end.p0(i64 48, ptr nonnull %4) #10
  br label %37

X509_PURPOSE_get_by_id.exit:                      ; preds = %16
  %18 = load i64, ptr %5, align 8, !tbaa !29
  %19 = trunc i64 %18 to i32
  %20 = add i32 %19, 9
  call void @llvm.lifetime.end.p0(i64 8, ptr nonnull %5) #10
  call void @llvm.lifetime.end.p0(i64 48, ptr nonnull %4) #10
  %21 = icmp eq i32 %20, -1
  br i1 %21, label %37, label %22

22:                                               ; preds = %X509_PURPOSE_get_by_id.exit
  %23 = icmp slt i32 %20, 0
  br i1 %23, label %X509_PURPOSE_get0.exit, label %24

24:                                               ; preds = %22
  %25 = icmp ugt i32 %19, -10
  br i1 %25, label %26, label %29

26:                                               ; preds = %.thread19, %24
  %.0.i161821 = phi i32 [ %13, %.thread19 ], [ %20, %24 ]
  %27 = zext nneg i32 %.0.i161821 to i64
  %28 = getelementptr inbounds nuw %struct.x509_purpose_st, ptr @xstandard, i64 %27
  br label %X509_PURPOSE_get0.exit

29:                                               ; preds = %24
  %30 = load ptr, ptr @xptable, align 8, !tbaa !27
  %31 = zext nneg i32 %20 to i64
  %32 = add nsw i64 %31, -9
  %33 = call ptr @sk_value(ptr noundef %30, i64 noundef %32) #10
  br label %X509_PURPOSE_get0.exit

X509_PURPOSE_get0.exit:                           ; preds = %22, %26, %29
  %.0.i12 = phi ptr [ %28, %26 ], [ %33, %29 ], [ null, %22 ]
  %34 = getelementptr inbounds nuw i8, ptr %.0.i12, i64 16
  %35 = load ptr, ptr %34, align 8, !tbaa !30
  %36 = call i32 %35(ptr noundef %.0.i12, ptr noundef nonnull %0, i32 noundef %2) #10
  br label %37

37:                                               ; preds = %X509_PURPOSE_get_by_id.exit.thread, %X509_PURPOSE_get_by_id.exit, %10, %X509_PURPOSE_get0.exit
  %.0 = phi i32 [ %36, %X509_PURPOSE_get0.exit ], [ 1, %10 ], [ -1, %X509_PURPOSE_get_by_id.exit ], [ -1, %X509_PURPOSE_get_by_id.exit.thread ]
  ret i32 %.0
}